; Function Attrs: mustprogress nounwind uwtable
define internal noundef i64 @_ZN4absl18profiling_internal12_GLOBAL__N_119MockPeriodicSampler20GetExponentialBiasedEi(ptr noundef nonnull align 8 dereferenceable(184) %0, i32 noundef %1) unnamed_addr #11 align 2 personality ptr @__gxx_personality_v0 {
  %3 = alloca %"class.std::tuple.62", align 4
  %4 = getelementptr inbounds nuw i8, ptr %0, i64 112
  invoke void @_ZN7testing8internal25UntypedFunctionMockerBase15SetOwnerAndNameEPKvPKc(ptr noundef nonnull align 8 dereferenceable(72) %4, ptr noundef nonnull %0, ptr noundef nonnull @.str.83)
          to label %5 unwind label %8

5:                                                ; preds = %2
  call void @llvm.lifetime.start.p0(i64 4, ptr nonnull %3) #26
  store i32 %1, ptr %3, align 4, !tbaa !169
  %6 = invoke noundef i64 @_ZN7testing8internal14FunctionMockerIFliEE10InvokeWithEOSt5tupleIJiEE(ptr noundef nonnull align 8 dereferenceable(72) %4, ptr noundef nonnull align 4 dereferenceable(4) %3)
          to label %7 unwind label %8

7:                                                ; preds = %5
  call void @llvm.lifetime.end.p0(i64 4, ptr nonnull %3) #26
  ret i64 %6

8:                                                ; preds = %5, %2
  %9 = landingpad { ptr, i32 }
          catch ptr null
  %10 = extractvalue { ptr, i32 } %9, 0
  call void @__clang_call_terminate(ptr %10) #27
  unreachable
}